ARM GAS  /tmp/ccIjolJS.s 			page 1


   1              		.cpu cortex-m3
   2              		.eabi_attribute 20, 1
   3              		.eabi_attribute 21, 1
   4              		.eabi_attribute 23, 3
   5              		.eabi_attribute 24, 1
   6              		.eabi_attribute 25, 1
   7              		.eabi_attribute 26, 1
   8              		.eabi_attribute 30, 1
   9              		.eabi_attribute 34, 1
  10              		.eabi_attribute 18, 4
  11              		.file	"gpio.c"
  12              		.text
  13              	.Ltext0:
  14              		.cfi_sections	.debug_frame
  15              		.section	.text.LED_GPIO_Init,"ax",%progbits
  16              		.align	1
  17              		.global	LED_GPIO_Init
  18              		.arch armv7-m
  19              		.syntax unified
  20              		.thumb
  21              		.thumb_func
  22              		.fpu softvfp
  24              	LED_GPIO_Init:
  25              	.LFB65:
  26              		.file 1 "Src/gpio.c"
   1:Src/gpio.c    **** #include "gpio.h"
   2:Src/gpio.c    **** #include "stm32f1xx_hal.h"
   3:Src/gpio.c    **** #include "stm32f1xx_hal_gpio.h"
   4:Src/gpio.c    **** #include <stdint.h>
   5:Src/gpio.c    **** 
   6:Src/gpio.c    **** static GPIO_InitTypeDef GPIO_InitStruct = {0};
   7:Src/gpio.c    **** 
   8:Src/gpio.c    **** void LED_GPIO_Init(void)
   9:Src/gpio.c    **** {
  27              		.loc 1 9 1 view -0
  28              		.cfi_startproc
  29              		@ args = 0, pretend = 0, frame = 8
  30              		@ frame_needed = 0, uses_anonymous_args = 0
  31 0000 10B5     		push	{r4, lr}
  32              	.LCFI0:
  33              		.cfi_def_cfa_offset 8
  34              		.cfi_offset 4, -8
  35              		.cfi_offset 14, -4
  36 0002 82B0     		sub	sp, sp, #8
  37              	.LCFI1:
  38              		.cfi_def_cfa_offset 16
  10:Src/gpio.c    ****     /* 启用GPIO Ports时钟 */
  11:Src/gpio.c    ****     __HAL_RCC_GPIOB_CLK_ENABLE();
  39              		.loc 1 11 5 view .LVU1
  40              	.LBB2:
  41              		.loc 1 11 5 view .LVU2
  42              		.loc 1 11 5 view .LVU3
  43 0004 0E4B     		ldr	r3, .L3
  44 0006 9A69     		ldr	r2, [r3, #24]
  45 0008 42F00802 		orr	r2, r2, #8
  46 000c 9A61     		str	r2, [r3, #24]
  47              		.loc 1 11 5 view .LVU4
ARM GAS  /tmp/ccIjolJS.s 			page 2


  48 000e 9B69     		ldr	r3, [r3, #24]
  49 0010 03F00803 		and	r3, r3, #8
  50 0014 0193     		str	r3, [sp, #4]
  51              		.loc 1 11 5 view .LVU5
  52 0016 019B     		ldr	r3, [sp, #4]
  53              	.LBE2:
  54              		.loc 1 11 5 view .LVU6
  12:Src/gpio.c    **** 
  13:Src/gpio.c    ****     /* 设置GPIO初始输出电平 */
  14:Src/gpio.c    ****     HAL_GPIO_WritePin(LED_R_Port, LED_R_Pin, GPIO_PIN_RESET);
  55              		.loc 1 14 5 view .LVU7
  56 0018 0A4C     		ldr	r4, .L3+4
  57 001a 0022     		movs	r2, #0
  58 001c 2021     		movs	r1, #32
  59 001e 2046     		mov	r0, r4
  60 0020 FFF7FEFF 		bl	HAL_GPIO_WritePin
  61              	.LVL0:
  15:Src/gpio.c    **** 
  16:Src/gpio.c    ****     /* 设置GPIO */
  17:Src/gpio.c    ****     GPIO_InitStruct.Mode  = GPIO_MODE_OUTPUT_PP;    /* GPIO输出 */
  62              		.loc 1 17 5 view .LVU8
  63              		.loc 1 17 27 is_stmt 0 view .LVU9
  64 0024 0849     		ldr	r1, .L3+8
  65 0026 0123     		movs	r3, #1
  66 0028 4B60     		str	r3, [r1, #4]
  18:Src/gpio.c    ****     GPIO_InitStruct.Pull  = GPIO_PULLDOWN;          /* 下拉 */
  67              		.loc 1 18 5 is_stmt 1 view .LVU10
  68              		.loc 1 18 27 is_stmt 0 view .LVU11
  69 002a 0223     		movs	r3, #2
  70 002c 8B60     		str	r3, [r1, #8]
  19:Src/gpio.c    ****     GPIO_InitStruct.Speed = GPIO_SPEED_FREQ_LOW;    /* 低速 */
  71              		.loc 1 19 5 is_stmt 1 view .LVU12
  72              		.loc 1 19 27 is_stmt 0 view .LVU13
  73 002e CB60     		str	r3, [r1, #12]
  20:Src/gpio.c    **** 
  21:Src/gpio.c    ****     GPIO_InitStruct.Pin   = LED_R_Pin;              /* 设置Pin */
  74              		.loc 1 21 5 is_stmt 1 view .LVU14
  75              		.loc 1 21 27 is_stmt 0 view .LVU15
  76 0030 2023     		movs	r3, #32
  77 0032 0B60     		str	r3, [r1]
  22:Src/gpio.c    ****     HAL_GPIO_Init(LED_R_Port, &GPIO_InitStruct);
  78              		.loc 1 22 5 is_stmt 1 view .LVU16
  79 0034 2046     		mov	r0, r4
  80 0036 FFF7FEFF 		bl	HAL_GPIO_Init
  81              	.LVL1:
  23:Src/gpio.c    **** 
  24:Src/gpio.c    ****     return;
  82              		.loc 1 24 5 view .LVU17
  25:Src/gpio.c    **** }
  83              		.loc 1 25 1 is_stmt 0 view .LVU18
  84 003a 02B0     		add	sp, sp, #8
  85              	.LCFI2:
  86              		.cfi_def_cfa_offset 8
  87              		@ sp needed
  88 003c 10BD     		pop	{r4, pc}
  89              	.L4:
  90 003e 00BF     		.align	2
ARM GAS  /tmp/ccIjolJS.s 			page 3


  91              	.L3:
  92 0040 00100240 		.word	1073876992
  93 0044 000C0140 		.word	1073810432
  94 0048 00000000 		.word	.LANCHOR0
  95              		.cfi_endproc
  96              	.LFE65:
  98              		.section	.text.KEY_GPIO_Init,"ax",%progbits
  99              		.align	1
 100              		.global	KEY_GPIO_Init
 101              		.syntax unified
 102              		.thumb
 103              		.thumb_func
 104              		.fpu softvfp
 106              	KEY_GPIO_Init:
 107              	.LFB66:
  26:Src/gpio.c    **** 
  27:Src/gpio.c    **** void KEY_GPIO_Init(void)
  28:Src/gpio.c    **** {
 108              		.loc 1 28 1 is_stmt 1 view -0
 109              		.cfi_startproc
 110              		@ args = 0, pretend = 0, frame = 8
 111              		@ frame_needed = 0, uses_anonymous_args = 0
 112 0000 10B5     		push	{r4, lr}
 113              	.LCFI3:
 114              		.cfi_def_cfa_offset 8
 115              		.cfi_offset 4, -8
 116              		.cfi_offset 14, -4
 117 0002 82B0     		sub	sp, sp, #8
 118              	.LCFI4:
 119              		.cfi_def_cfa_offset 16
  29:Src/gpio.c    ****     /* 启用GPIO Ports时钟 */
  30:Src/gpio.c    ****     __HAL_RCC_GPIOA_CLK_ENABLE();
 120              		.loc 1 30 5 view .LVU20
 121              	.LBB3:
 122              		.loc 1 30 5 view .LVU21
 123              		.loc 1 30 5 view .LVU22
 124 0004 154B     		ldr	r3, .L7
 125 0006 9A69     		ldr	r2, [r3, #24]
 126 0008 42F00402 		orr	r2, r2, #4
 127 000c 9A61     		str	r2, [r3, #24]
 128              		.loc 1 30 5 view .LVU23
 129 000e 9A69     		ldr	r2, [r3, #24]
 130 0010 02F00402 		and	r2, r2, #4
 131 0014 0092     		str	r2, [sp]
 132              		.loc 1 30 5 view .LVU24
 133 0016 009A     		ldr	r2, [sp]
 134              	.LBE3:
 135              		.loc 1 30 5 view .LVU25
  31:Src/gpio.c    ****     __HAL_RCC_GPIOC_CLK_ENABLE();
 136              		.loc 1 31 5 view .LVU26
 137              	.LBB4:
 138              		.loc 1 31 5 view .LVU27
 139              		.loc 1 31 5 view .LVU28
 140 0018 9A69     		ldr	r2, [r3, #24]
 141 001a 42F01002 		orr	r2, r2, #16
 142 001e 9A61     		str	r2, [r3, #24]
 143              		.loc 1 31 5 view .LVU29
ARM GAS  /tmp/ccIjolJS.s 			page 4


 144 0020 9B69     		ldr	r3, [r3, #24]
 145 0022 03F01003 		and	r3, r3, #16
 146 0026 0193     		str	r3, [sp, #4]
 147              		.loc 1 31 5 view .LVU30
 148 0028 019B     		ldr	r3, [sp, #4]
 149              	.LBE4:
 150              		.loc 1 31 5 view .LVU31
  32:Src/gpio.c    **** 
  33:Src/gpio.c    ****     /* 设置GPIO初始输出电平 */
  34:Src/gpio.c    ****     HAL_GPIO_WritePin(KEY1_Port, KEY1_Pin, GPIO_PIN_RESET);
 151              		.loc 1 34 5 view .LVU32
 152 002a 0D4C     		ldr	r4, .L7+4
 153 002c 0022     		movs	r2, #0
 154 002e 0121     		movs	r1, #1
 155 0030 2046     		mov	r0, r4
 156 0032 FFF7FEFF 		bl	HAL_GPIO_WritePin
 157              	.LVL2:
  35:Src/gpio.c    ****     HAL_GPIO_WritePin(KEY2_Port, KEY2_Pin, GPIO_PIN_RESET);
 158              		.loc 1 35 5 view .LVU33
 159 0036 0022     		movs	r2, #0
 160 0038 4FF40051 		mov	r1, #8192
 161 003c 0948     		ldr	r0, .L7+8
 162 003e FFF7FEFF 		bl	HAL_GPIO_WritePin
 163              	.LVL3:
  36:Src/gpio.c    **** 
  37:Src/gpio.c    ****     /* 设置GPIO（没有时钟速度设置） */
  38:Src/gpio.c    ****     GPIO_InitStruct.Mode  = GPIO_MODE_INPUT;        /* GPIO输入 */
 164              		.loc 1 38 5 view .LVU34
 165              		.loc 1 38 27 is_stmt 0 view .LVU35
 166 0042 0949     		ldr	r1, .L7+12
 167 0044 0023     		movs	r3, #0
 168 0046 4B60     		str	r3, [r1, #4]
  39:Src/gpio.c    ****     GPIO_InitStruct.Pull  = GPIO_NOPULL;            /* 无上拉下拉 */
 169              		.loc 1 39 5 is_stmt 1 view .LVU36
 170              		.loc 1 39 27 is_stmt 0 view .LVU37
 171 0048 8B60     		str	r3, [r1, #8]
  40:Src/gpio.c    **** 
  41:Src/gpio.c    ****     GPIO_InitStruct.Pin   = KEY1_Pin | KEY2_Pin;    /* 设置Pin */
 172              		.loc 1 41 5 is_stmt 1 view .LVU38
 173              		.loc 1 41 27 is_stmt 0 view .LVU39
 174 004a 42F20103 		movw	r3, #8193
 175 004e 0B60     		str	r3, [r1]
  42:Src/gpio.c    ****     HAL_GPIO_Init(KEY1_Port, &GPIO_InitStruct);
 176              		.loc 1 42 5 is_stmt 1 view .LVU40
 177 0050 2046     		mov	r0, r4
 178 0052 FFF7FEFF 		bl	HAL_GPIO_Init
 179              	.LVL4:
  43:Src/gpio.c    **** 
  44:Src/gpio.c    ****     return;
 180              		.loc 1 44 5 view .LVU41
  45:Src/gpio.c    **** }
 181              		.loc 1 45 1 is_stmt 0 view .LVU42
 182 0056 02B0     		add	sp, sp, #8
 183              	.LCFI5:
 184              		.cfi_def_cfa_offset 8
 185              		@ sp needed
 186 0058 10BD     		pop	{r4, pc}
ARM GAS  /tmp/ccIjolJS.s 			page 5


 187              	.L8:
 188 005a 00BF     		.align	2
 189              	.L7:
 190 005c 00100240 		.word	1073876992
 191 0060 00080140 		.word	1073809408
 192 0064 00100140 		.word	1073811456
 193 0068 00000000 		.word	.LANCHOR0
 194              		.cfi_endproc
 195              	.LFE66:
 197              		.section	.text.KEY_Scan,"ax",%progbits
 198              		.align	1
 199              		.global	KEY_Scan
 200              		.syntax unified
 201              		.thumb
 202              		.thumb_func
 203              		.fpu softvfp
 205              	KEY_Scan:
 206              	.LVL5:
 207              	.LFB67:
  46:Src/gpio.c    **** 
  47:Src/gpio.c    **** KEY_STATE KEY_Scan(GPIO_TypeDef *GPIOx, uint16_t GPIO_PIN)
  48:Src/gpio.c    **** {
 208              		.loc 1 48 1 is_stmt 1 view -0
 209              		.cfi_startproc
 210              		@ args = 0, pretend = 0, frame = 0
 211              		@ frame_needed = 0, uses_anonymous_args = 0
 212              		.loc 1 48 1 is_stmt 0 view .LVU44
 213 0000 F8B5     		push	{r3, r4, r5, r6, r7, lr}
 214              	.LCFI6:
 215              		.cfi_def_cfa_offset 24
 216              		.cfi_offset 3, -24
 217              		.cfi_offset 4, -20
 218              		.cfi_offset 5, -16
 219              		.cfi_offset 6, -12
 220              		.cfi_offset 7, -8
 221              		.cfi_offset 14, -4
 222 0002 0546     		mov	r5, r0
 223 0004 0E46     		mov	r6, r1
  49:Src/gpio.c    ****     uint8_t time = 0;
 224              		.loc 1 49 5 is_stmt 1 view .LVU45
 225              	.LVL6:
  50:Src/gpio.c    **** 
  51:Src/gpio.c    ****     if(HAL_GPIO_ReadPin(GPIOx, GPIO_PIN) == KEY_ON)
 226              		.loc 1 51 5 view .LVU46
 227              		.loc 1 51 8 is_stmt 0 view .LVU47
 228 0006 FFF7FEFF 		bl	HAL_GPIO_ReadPin
 229              	.LVL7:
 230              		.loc 1 51 7 view .LVU48
 231 000a 0128     		cmp	r0, #1
 232 000c 11D0     		beq	.L13
  52:Src/gpio.c    ****     {
  53:Src/gpio.c    ****         while(HAL_GPIO_ReadPin(GPIOx, GPIO_PIN) == KEY_ON)
  54:Src/gpio.c    ****         {
  55:Src/gpio.c    ****             time++;
  56:Src/gpio.c    ****             HAL_Delay(1);
  57:Src/gpio.c    ****         }
  58:Src/gpio.c    **** 
ARM GAS  /tmp/ccIjolJS.s 			page 6


  59:Src/gpio.c    ****         if(time > DELAY)
  60:Src/gpio.c    ****         {
  61:Src/gpio.c    ****             return KEY_ON;
  62:Src/gpio.c    ****         }
  63:Src/gpio.c    ****         else
  64:Src/gpio.c    ****         {
  65:Src/gpio.c    ****             return KEY_OFF;
  66:Src/gpio.c    ****         }
  67:Src/gpio.c    ****     }
  68:Src/gpio.c    ****     else
  69:Src/gpio.c    ****     {
  70:Src/gpio.c    ****         return KEY_OFF;
 233              		.loc 1 70 16 view .LVU49
 234 000e 0027     		movs	r7, #0
 235              	.LVL8:
 236              	.L11:
  71:Src/gpio.c    ****     }
  72:Src/gpio.c    **** }
 237              		.loc 1 72 1 view .LVU50
 238 0010 3846     		mov	r0, r7
 239 0012 F8BD     		pop	{r3, r4, r5, r6, r7, pc}
 240              	.LVL9:
 241              	.L12:
  55:Src/gpio.c    ****             HAL_Delay(1);
 242              		.loc 1 55 13 is_stmt 1 view .LVU51
  55:Src/gpio.c    ****             HAL_Delay(1);
 243              		.loc 1 55 17 is_stmt 0 view .LVU52
 244 0014 0134     		adds	r4, r4, #1
 245              	.LVL10:
  55:Src/gpio.c    ****             HAL_Delay(1);
 246              		.loc 1 55 17 view .LVU53
 247 0016 E4B2     		uxtb	r4, r4
 248              	.LVL11:
  56:Src/gpio.c    ****         }
 249              		.loc 1 56 13 is_stmt 1 view .LVU54
 250 0018 0120     		movs	r0, #1
 251 001a FFF7FEFF 		bl	HAL_Delay
 252              	.LVL12:
 253              	.L10:
  53:Src/gpio.c    ****         {
 254              		.loc 1 53 14 view .LVU55
  53:Src/gpio.c    ****         {
 255              		.loc 1 53 15 is_stmt 0 view .LVU56
 256 001e 3146     		mov	r1, r6
 257 0020 2846     		mov	r0, r5
 258 0022 FFF7FEFF 		bl	HAL_GPIO_ReadPin
 259              	.LVL13:
  53:Src/gpio.c    ****         {
 260              		.loc 1 53 14 view .LVU57
 261 0026 0128     		cmp	r0, #1
 262 0028 F4D0     		beq	.L12
  59:Src/gpio.c    ****         {
 263              		.loc 1 59 9 is_stmt 1 view .LVU58
  59:Src/gpio.c    ****         {
 264              		.loc 1 59 11 is_stmt 0 view .LVU59
 265 002a 0A2C     		cmp	r4, #10
 266 002c F0D8     		bhi	.L11
ARM GAS  /tmp/ccIjolJS.s 			page 7


  65:Src/gpio.c    ****         }
 267              		.loc 1 65 20 view .LVU60
 268 002e 0027     		movs	r7, #0
 269 0030 EEE7     		b	.L11
 270              	.LVL14:
 271              	.L13:
  65:Src/gpio.c    ****         }
 272              		.loc 1 65 20 view .LVU61
 273 0032 0746     		mov	r7, r0
  49:Src/gpio.c    **** 
 274              		.loc 1 49 13 view .LVU62
 275 0034 0024     		movs	r4, #0
 276 0036 F2E7     		b	.L10
 277              		.cfi_endproc
 278              	.LFE67:
 280              		.section	.bss.GPIO_InitStruct,"aw",%nobits
 281              		.align	2
 282              		.set	.LANCHOR0,. + 0
 285              	GPIO_InitStruct:
 286 0000 00000000 		.space	16
 286      00000000 
 286      00000000 
 286      00000000 
 287              		.text
 288              	.Letext0:
 289              		.file 2 "/usr/lib/gcc/arm-none-eabi/10.3.1/include/stdint.h"
 290              		.file 3 "Drivers/CMSIS/Device/ST/STM32F1xx/Include/stm32f103xe.h"
 291              		.file 4 "Drivers/STM32F1xx_HAL_Driver/Inc/stm32f1xx_hal_gpio.h"
 292              		.file 5 "Drivers/STM32F1xx_HAL_Driver/Inc/stm32f1xx_hal.h"
ARM GAS  /tmp/ccIjolJS.s 			page 8

